target datalayout = "e-m:e-p270:32:32-p271:32:32-p272:64:64-i64:64-i128:128-f80:128-n8:16:32:64-S128"
target triple = "x86_64-pc-linux-gnu"

%struct.PQExpBufferData = type { ptr, i64, i64 }

@.str.8 = private unnamed_addr constant [6 x i8] c"%s/%s\00", align 1
@.str.9 = private unnamed_addr constant [14 x i8] c"recovery.conf\00", align 1
@.str.10 = private unnamed_addr constant [21 x i8] c"postgresql.auto.conf\00", align 1
@.str.11 = private unnamed_addr constant [2 x i8] c"w\00", align 1
@.str.12 = private unnamed_addr constant [2 x i8] c"a\00", align 1
@.str.13 = private unnamed_addr constant [29 x i8] c"could not open file \22%s\22: %m\00", align 1
@.str.14 = private unnamed_addr constant [33 x i8] c"could not write to file \22%s\22: %m\00", align 1
@.str.15 = private unnamed_addr constant [15 x i8] c"standby.signal\00", align 1
@.str.16 = private unnamed_addr constant [31 x i8] c"could not create file \22%s\22: %m\00", align 1

; Function Attrs: nounwind uwtable
define dso_local void @WriteRecoveryConfig(ptr noundef %0, ptr noundef %1, ptr noundef %2) #0 {
  %4 = alloca ptr, align 8
  %5 = alloca ptr, align 8
  %6 = alloca ptr, align 8
  %7 = alloca [1024 x i8], align 16
  %8 = alloca ptr, align 8
  %9 = alloca i8, align 1
  store ptr %0, ptr %4, align 8
  store ptr %1, ptr %5, align 8
  store ptr %2, ptr %6, align 8
  call void @llvm.lifetime.start.p0(i64 1024, ptr %7) #6
  call void @llvm.lifetime.start.p0(i64 8, ptr %8) #6
  call void @llvm.lifetime.start.p0(i64 1, ptr %9) #6
  %10 = load ptr, ptr %4, align 8
  %11 = call i32 @PQserverVersion(ptr noundef %10)
  %12 = icmp slt i32 %11, 120000
  %13 = zext i1 %12 to i8
  store i8 %13, ptr %9, align 1
  %14 = getelementptr inbounds [1024 x i8], ptr %7, i64 0, i64 0
  %15 = load ptr, ptr %5, align 8
  %16 = load i8, ptr %9, align 1, !range !6, !noundef !7
  %17 = trunc i8 %16 to i1
  %18 = select i1 %17, ptr @.str.9, ptr @.str.10
  %19 = call i32 (ptr, i64, ptr, ...) @pg_snprintf(ptr noundef %14, i64 noundef 1024, ptr noundef @.str.8, ptr noundef %15, ptr noundef %18)
  %20 = getelementptr inbounds [1024 x i8], ptr %7, i64 0, i64 0
  %21 = load i8, ptr %9, align 1, !range !6, !noundef !7
  %22 = trunc i8 %21 to i1
  %23 = select i1 %22, ptr @.str.11, ptr @.str.12
  %24 = call noalias ptr @fopen(ptr noundef %20, ptr noundef %23)
  store ptr %24, ptr %8, align 8
  %25 = load ptr, ptr %8, align 8
  %26 = icmp eq ptr %25, null
  br i1 %26, label %27, label %32

27:                                               ; preds = %3
  br label %28

28:                                               ; preds = %27
  %29 = getelementptr inbounds [1024 x i8], ptr %7, i64 0, i64 0
  call void (i32, i32, ptr, ...) @pg_log_generic(i32 noundef 4, i32 noundef 0, ptr noundef @.str.13, ptr noundef %29)
  call void @exit(i32 noundef 1) #7
  unreachable

30:                                               ; No predecessors!
  br label %31

31:                                               ; preds = %30
  br label %32

32:                                               ; preds = %31, %3
  %33 = load ptr, ptr %6, align 8
  %34 = getelementptr inbounds nuw %struct.PQExpBufferData, ptr %33, i32 0, i32 0
  %35 = load ptr, ptr %34, align 8
  %36 = load ptr, ptr %6, align 8
  %37 = getelementptr inbounds nuw %struct.PQExpBufferData, ptr %36, i32 0, i32 1
  %38 = load i64, ptr %37, align 8
  %39 = load ptr, ptr %8, align 8
  %40 = call i64 @fwrite(ptr noundef %35, i64 noundef %38, i64 noundef 1, ptr noundef %39)
  %41 = icmp ne i64 %40, 1
  br i1 %41, label %42, label %47

42:                                               ; preds = %32
  br label %43

43:                                               ; preds = %42
  %44 = getelementptr inbounds [1024 x i8], ptr %7, i64 0, i64 0
  call void (i32, i32, ptr, ...) @pg_log_generic(i32 noundef 4, i32 noundef 0, ptr noundef @.str.14, ptr noundef %44)
  call void @exit(i32 noundef 1) #7
  unreachable

45:                                               ; No predecessors!
  br label %46

46:                                               ; preds = %45
  br label %47

47:                                               ; preds = %46, %32
  %48 = load ptr, ptr %8, align 8
  %49 = call i32 @fclose(ptr noundef %48)
  %50 = load i8, ptr %9, align 1, !range !6, !noundef !7
  %51 = trunc i8 %50 to i1
  br i1 %51, label %68, label %52

52:                                               ; preds = %47
  %53 = getelementptr inbounds [1024 x i8], ptr %7, i64 0, i64 0
  %54 = load ptr, ptr %5, align 8
  %55 = call i32 (ptr, i64, ptr, ...) @pg_snprintf(ptr noundef %53, i64 noundef 1024, ptr noundef @.str.8, ptr noundef %54, ptr noundef @.str.15)
  %56 = getelementptr inbounds [1024 x i8], ptr %7, i64 0, i64 0
  %57 = call noalias ptr @fopen(ptr noundef %56, ptr noundef @.str.11)
  store ptr %57, ptr %8, align 8
  %58 = load ptr, ptr %8, align 8
  %59 = icmp eq ptr %58, null
  br i1 %59, label %60, label %65

60:                                               ; preds = %52
  br label %61

61:                                               ; preds = %60
  %62 = getelementptr inbounds [1024 x i8], ptr %7, i64 0, i64 0
  call void (i32, i32, ptr, ...) @pg_log_generic(i32 noundef 4, i32 noundef 0, ptr noundef @.str.16, ptr noundef %62)
  call void @exit(i32 noundef 1) #7
  unreachable

63:                                               ; No predecessors!
  br label %64

64:                                               ; preds = %63
  br label %65

65:                                               ; preds = %64, %52
  %66 = load ptr, ptr %8, align 8
  %67 = call i32 @fclose(ptr noundef %66)
  br label %68

68:                                               ; preds = %65, %47
  call void @llvm.lifetime.end.p0(i64 1, ptr %9) #6
  call void @llvm.lifetime.end.p0(i64 8, ptr %8) #6
  call void @llvm.lifetime.end.p0(i64 1024, ptr %7) #6
  ret void
}