; Function Attrs: nounwind uwtable
define dso_local void @WriteRecoveryConfig(ptr noundef %0, ptr noundef %1, ptr noundef readonly captures(none) %2) local_unnamed_addr #0 {
  %4 = alloca [1024 x i8], align 16
  call void @llvm.lifetime.start.p0(i64 1024, ptr nonnull %4) #7
  %5 = tail call i32 @PQserverVersion(ptr noundef %0) #7
  %6 = icmp slt i32 %5, 120000
  %7 = select i1 %6, ptr @.str.9, ptr @.str.10
  %8 = call i32 (ptr, i64, ptr, ...) @pg_snprintf(ptr noundef nonnull %4, i64 noundef 1024, ptr noundef nonnull @.str.8, ptr noundef %1, ptr noundef nonnull %7) #7
  %9 = select i1 %6, ptr @.str.11, ptr @.str.12
  %10 = call noalias ptr @fopen(ptr noundef nonnull %4, ptr noundef nonnull %9)
  %11 = icmp eq ptr %10, null
  br i1 %11, label %12, label %13

12:                                               ; preds = %3
  call void (i32, i32, ptr, ...) @pg_log_generic(i32 noundef 4, i32 noundef 0, ptr noundef nonnull @.str.13, ptr noundef nonnull %4) #7
  call void @exit(i32 noundef 1) #8
  unreachable

13:                                               ; preds = %3
  %14 = load ptr, ptr %2, align 8
  %15 = getelementptr inbounds nuw i8, ptr %2, i64 8
  %16 = load i64, ptr %15, align 8
  %17 = call i64 @fwrite(ptr noundef %14, i64 noundef %16, i64 noundef 1, ptr noundef nonnull %10)
  %.not = icmp eq i64 %17, 1
  br i1 %.not, label %19, label %18

18:                                               ; preds = %13
  call void (i32, i32, ptr, ...) @pg_log_generic(i32 noundef 4, i32 noundef 0, ptr noundef nonnull @.str.14, ptr noundef nonnull %4) #7
  call void @exit(i32 noundef 1) #8
  unreachable

19:                                               ; preds = %13
  %20 = call i32 @fclose(ptr noundef nonnull %10)
  br i1 %6, label %28, label %21

21:                                               ; preds = %19
  %22 = call i32 (ptr, i64, ptr, ...) @pg_snprintf(ptr noundef nonnull %4, i64 noundef 1024, ptr noundef nonnull @.str.8, ptr noundef %1, ptr noundef nonnull @.str.15) #7
  %23 = call noalias ptr @fopen(ptr noundef nonnull %4, ptr noundef nonnull @.str.11)
  %24 = icmp eq ptr %23, null
  br i1 %24, label %25, label %26

25:                                               ; preds = %21
  call void (i32, i32, ptr, ...) @pg_log_generic(i32 noundef 4, i32 noundef 0, ptr noundef nonnull @.str.16, ptr noundef nonnull %4) #7
  call void @exit(i32 noundef 1) #8
  unreachable

26:                                               ; preds = %21
  %27 = call i32 @fclose(ptr noundef nonnull %23)
  br label %28

28:                                               ; preds = %26, %19
  call void @llvm.lifetime.end.p0(i64 1024, ptr nonnull %4) #7
  ret void
}